target datalayout = "e-m:e-p270:32:32-p271:32:32-p272:64:64-i64:64-i128:128-f80:128-n8:16:32:64-S128"
target triple = "x86_64-unknown-linux-gnu"

%"class.std::__cxx11::basic_string" = type { %"struct.std::__cxx11::basic_string<char>::_Alloc_hider", i64, %union.anon }
%"struct.std::__cxx11::basic_string<char>::_Alloc_hider" = type { ptr }
%union.anon = type { i64, [8 x i8] }
%"class.Imf_3_2::RgbaInputFile" = type { ptr, ptr, ptr, ptr, %"class.std::__cxx11::basic_string" }

@_ZTVN7Imf_3_213RgbaInputFileE = unnamed_addr constant { [4 x ptr] } { [4 x ptr] [ptr null, ptr @_ZTIN7Imf_3_213RgbaInputFileE, ptr @_ZN7Imf_3_213RgbaInputFileD1Ev, ptr @_ZN7Imf_3_213RgbaInputFileD0Ev] }, align 8
@_ZN7Imf_3_213RgbaInputFile7FromYcaD1Ev = hidden unnamed_addr alias void (ptr), ptr @_ZN7Imf_3_213RgbaInputFile7FromYcaD2Ev

; Function Attrs: mustprogress nounwind uwtable
define void @_ZN7Imf_3_213RgbaInputFileD2Ev(ptr noundef nonnull align 8 dereferenceable(64) %this) unnamed_addr #5 align 2 {
entry:
  %this.addr = alloca ptr, align 8
  store ptr %this, ptr %this.addr, align 8
  %this1 = load ptr, ptr %this.addr, align 8
  store ptr getelementptr inbounds ({ [4 x ptr] }, ptr @_ZTVN7Imf_3_213RgbaInputFileE, i32 0, i32 0, i32 2), ptr %this1, align 8
  %_inputPart = getelementptr inbounds %"class.Imf_3_2::RgbaInputFile", ptr %this1, i32 0, i32 2
  %0 = load ptr, ptr %_inputPart, align 8
  %tobool = icmp ne ptr %0, null
  br i1 %tobool, label %if.then, label %if.end

if.then:                                          ; preds = %entry
  %_inputPart2 = getelementptr inbounds %"class.Imf_3_2::RgbaInputFile", ptr %this1, i32 0, i32 2
  %1 = load ptr, ptr %_inputPart2, align 8
  %isnull = icmp eq ptr %1, null
  br i1 %isnull, label %delete.end, label %delete.notnull

delete.notnull:                                   ; preds = %if.then
  call void @_ZdlPv(ptr noundef %1) #14
  br label %delete.end

delete.end:                                       ; preds = %delete.notnull, %if.then
  br label %if.end

if.end:                                           ; preds = %delete.end, %entry
  %_multiPartFile = getelementptr inbounds %"class.Imf_3_2::RgbaInputFile", ptr %this1, i32 0, i32 1
  %2 = load ptr, ptr %_multiPartFile, align 8
  %tobool3 = icmp ne ptr %2, null
  br i1 %tobool3, label %if.then4, label %if.end9

if.then4:                                         ; preds = %if.end
  %_multiPartFile5 = getelementptr inbounds %"class.Imf_3_2::RgbaInputFile", ptr %this1, i32 0, i32 1
  %3 = load ptr, ptr %_multiPartFile5, align 8
  %isnull6 = icmp eq ptr %3, null
  br i1 %isnull6, label %delete.end8, label %delete.notnull7

delete.notnull7:                                  ; preds = %if.then4
  %vtable = load ptr, ptr %3, align 8
  %vfn = getelementptr inbounds ptr, ptr %vtable, i64 1
  %4 = load ptr, ptr %vfn, align 8
  call void %4(ptr noundef nonnull align 8 dereferenceable(16) %3) #3
  br label %delete.end8

delete.end8:                                      ; preds = %delete.notnull7, %if.then4
  br label %if.end9

if.end9:                                          ; preds = %delete.end8, %if.end
  %_fromYca = getelementptr inbounds %"class.Imf_3_2::RgbaInputFile", ptr %this1, i32 0, i32 3
  %5 = load ptr, ptr %_fromYca, align 8
  %isnull10 = icmp eq ptr %5, null
  br i1 %isnull10, label %delete.end12, label %delete.notnull11

delete.notnull11:                                 ; preds = %if.end9
  call void @_ZN7Imf_3_213RgbaInputFile7FromYcaD1Ev(ptr noundef nonnull align 8 dereferenceable(392) %5) #3
  call void @_ZdlPv(ptr noundef %5) #14
  br label %delete.end12

delete.end12:                                     ; preds = %delete.notnull11, %if.end9
  %_channelNamePrefix = getelementptr inbounds %"class.Imf_3_2::RgbaInputFile", ptr %this1, i32 0, i32 4
  call void @_ZNSt7__cxx1112basic_stringIcSt11char_traitsIcESaIcEED1Ev(ptr noundef nonnull align 8 dereferenceable(32) %_channelNamePrefix) #3
  ret void
}