; Function Attrs: mustprogress nounwind uwtable
define void @_ZN7Imf_3_213RgbaInputFileD2Ev(ptr noundef nonnull align 8 dereferenceable(64) %this) unnamed_addr #6 align 2 {
entry:
  store ptr getelementptr inbounds ({ [4 x ptr] }, ptr @_ZTVN7Imf_3_213RgbaInputFileE, i64 0, i32 0, i64 2), ptr %this, align 8
  %_inputPart = getelementptr inbounds i8, ptr %this, i64 16
  %0 = load ptr, ptr %_inputPart, align 8
  %tobool.not = icmp eq ptr %0, null
  br i1 %tobool.not, label %if.end, label %delete.notnull

delete.notnull:                                   ; preds = %entry
  tail call void @_ZdlPv(ptr noundef nonnull %0) #24
  br label %if.end

if.end:                                           ; preds = %delete.notnull, %entry
  %_multiPartFile = getelementptr inbounds i8, ptr %this, i64 8
  %1 = load ptr, ptr %_multiPartFile, align 8
  %tobool3.not = icmp eq ptr %1, null
  br i1 %tobool3.not, label %if.end9, label %delete.notnull7

delete.notnull7:                                  ; preds = %if.end
  %vtable = load ptr, ptr %1, align 8
  %vfn = getelementptr inbounds i8, ptr %vtable, i64 8
  %2 = load ptr, ptr %vfn, align 8
  tail call void %2(ptr noundef nonnull align 8 dereferenceable(16) %1) #25
  br label %if.end9

if.end9:                                          ; preds = %delete.notnull7, %if.end
  %_fromYca = getelementptr inbounds i8, ptr %this, i64 24
  %3 = load ptr, ptr %_fromYca, align 8
  %isnull10 = icmp eq ptr %3, null
  br i1 %isnull10, label %delete.end12, label %delete.notnull11

delete.notnull11:                                 ; preds = %if.end9
  %_bufBase.i = getelementptr inbounds i8, ptr %3, i64 96
  %4 = load ptr, ptr %_bufBase.i, align 8
  %isnull.i = icmp eq ptr %4, null
  br i1 %isnull.i, label %delete.end.i, label %delete.notnull.i

delete.notnull.i:                                 ; preds = %delete.notnull11
  tail call void @_ZdaPv(ptr noundef nonnull %4) #24
  br label %delete.end.i

delete.end.i:                                     ; preds = %delete.notnull.i, %delete.notnull11
  %_tmpBuf.i = getelementptr inbounds i8, ptr %3, i64 360
  %5 = load ptr, ptr %_tmpBuf.i, align 8
  %isnull2.i = icmp eq ptr %5, null
  br i1 %isnull2.i, label %_ZN7Imf_3_213RgbaInputFile7FromYcaD2Ev.exit, label %delete.notnull3.i

delete.notnull3.i:                                ; preds = %delete.end.i
  tail call void @_ZdaPv(ptr noundef nonnull %5) #24
  br label %_ZN7Imf_3_213RgbaInputFile7FromYcaD2Ev.exit

_ZN7Imf_3_213RgbaInputFile7FromYcaD2Ev.exit:      ; preds = %delete.end.i, %delete.notnull3.i
  tail call void @_ZdlPv(ptr noundef nonnull %3) #24
  br label %delete.end12

delete.end12:                                     ; preds = %_ZN7Imf_3_213RgbaInputFile7FromYcaD2Ev.exit, %if.end9
  %_channelNamePrefix = getelementptr inbounds i8, ptr %this, i64 32
  tail call void @_ZNSt7__cxx1112basic_stringIcSt11char_traitsIcESaIcEED1Ev(ptr noundef nonnull align 8 dereferenceable(32) %_channelNamePrefix) #25
  ret void
}